target datalayout = "e-m:e-p270:32:32-p271:32:32-p272:64:64-i64:64-i128:128-f80:128-n8:16:32:64-S128"
target triple = "x86_64-pc-linux-gnu"

%struct.part_record = type { i32, ptr, ptr, ptr, ptr, ptr, ptr, i32, ptr, ptr, ptr, ptr, ptr, i32, i64, i32, ptr, ptr, ptr, ptr, ptr, i32, i32, ptr, i32, i32, i64, i32, i32, i16, i32, i32, i32, i32, ptr, ptr, ptr, ptr, ptr, double, i16, i16, i16, i16, ptr, ptr, i16, i16, i32, i16, i32, i32, i32, i32, i16, ptr, ptr, ptr }
%struct.node_record = type { ptr, ptr, i16, i64, i64, ptr, ptr, ptr, i16, ptr, i16, i16, i32, i32, i64, ptr, i16, i16, ptr, ptr, ptr, ptr, ptr, i64, i64, ptr, ptr, ptr, ptr, i32, ptr, ptr, i64, i64, i32, ptr, i64, ptr, i32, i16, ptr, ptr, i32, ptr, i32, i8, ptr, i32, i16, i16, ptr, i16, i64, i16, i64, ptr, i64, i32, i16, i64, i16, ptr, i16, i64, ptr, i64, i16, i32, i16, ptr, ptr, ptr, i16, i32, i16, i16, i32, ptr, i16, i32 }

@max_timeout = dso_local global i32 0, align 4

; Function Attrs: nounwind uwtable
define internal i32 @_set_partition_options(ptr noundef %0, ptr noundef %1) #0 {
  %3 = alloca ptr, align 8
  %4 = alloca ptr, align 8
  %5 = alloca ptr, align 8
  %6 = alloca ptr, align 8
  %7 = alloca ptr, align 8
  %8 = alloca i32, align 4
  store ptr %0, ptr %3, align 8
  store ptr %1, ptr %4, align 8
  call void @llvm.lifetime.start.p0(i64 8, ptr %5) #9
  %9 = load ptr, ptr %3, align 8
  store ptr %9, ptr %5, align 8
  call void @llvm.lifetime.start.p0(i64 8, ptr %6) #9
  call void @llvm.lifetime.start.p0(i64 8, ptr %7) #9
  %10 = load ptr, ptr %4, align 8
  store ptr %10, ptr %7, align 8
  %11 = load ptr, ptr %7, align 8
  %12 = icmp ne ptr %11, null
  br i1 %12, label %13, label %25

13:                                               ; preds = %2
  %14 = load ptr, ptr %5, align 8
  %15 = getelementptr inbounds nuw %struct.part_record, ptr %14, i32 0, i32 48
  %16 = load i32, ptr %15, align 4
  %17 = icmp ne i32 %16, -1
  br i1 %17, label %18, label %25

18:                                               ; preds = %13
  %19 = load ptr, ptr %5, align 8
  %20 = getelementptr inbounds nuw %struct.part_record, ptr %19, i32 0, i32 48
  %21 = load i32, ptr %20, align 4
  %22 = icmp ne i32 %21, -2
  br i1 %22, label %23, label %25

23:                                               ; preds = %18
  %24 = load ptr, ptr %7, align 8
  store i8 1, ptr %24, align 1
  br label %25

25:                                               ; preds = %23, %18, %13, %2
  %26 = load ptr, ptr %5, align 8
  %27 = getelementptr inbounds nuw %struct.part_record, ptr %26, i32 0, i32 46
  %28 = load i16, ptr %27, align 8
  %29 = zext i16 %28 to i32
  %30 = icmp ne i32 %29, 65534
  br i1 %30, label %31, label %47

31:                                               ; preds = %25
  %32 = load i32, ptr @max_timeout, align 4
  %33 = load ptr, ptr %5, align 8
  %34 = getelementptr inbounds nuw %struct.part_record, ptr %33, i32 0, i32 46
  %35 = load i16, ptr %34, align 8
  %36 = zext i16 %35 to i32
  %37 = icmp sgt i32 %32, %36
  br i1 %37, label %38, label %40

38:                                               ; preds = %31
  %39 = load i32, ptr @max_timeout, align 4
  br label %45

40:                                               ; preds = %31
  %41 = load ptr, ptr %5, align 8
  %42 = getelementptr inbounds nuw %struct.part_record, ptr %41, i32 0, i32 46
  %43 = load i16, ptr %42, align 8
  %44 = zext i16 %43 to i32
  br label %45

45:                                               ; preds = %40, %38
  %46 = phi i32 [ %39, %38 ], [ %44, %40 ]
  store i32 %46, ptr @max_timeout, align 4
  br label %47

47:                                               ; preds = %45, %25
  %48 = load ptr, ptr %5, align 8
  %49 = getelementptr inbounds nuw %struct.part_record, ptr %48, i32 0, i32 49
  %50 = load i16, ptr %49, align 8
  %51 = zext i16 %50 to i32
  %52 = icmp ne i32 %51, 65534
  br i1 %52, label %53, label %69

53:                                               ; preds = %47
  %54 = load i32, ptr @max_timeout, align 4
  %55 = load ptr, ptr %5, align 8
  %56 = getelementptr inbounds nuw %struct.part_record, ptr %55, i32 0, i32 46
  %57 = load i16, ptr %56, align 8
  %58 = zext i16 %57 to i32
  %59 = icmp sgt i32 %54, %58
  br i1 %59, label %60, label %62

60:                                               ; preds = %53
  %61 = load i32, ptr @max_timeout, align 4
  br label %67

62:                                               ; preds = %53
  %63 = load ptr, ptr %5, align 8
  %64 = getelementptr inbounds nuw %struct.part_record, ptr %63, i32 0, i32 46
  %65 = load i16, ptr %64, align 8
  %66 = zext i16 %65 to i32
  br label %67

67:                                               ; preds = %62, %60
  %68 = phi i32 [ %61, %60 ], [ %66, %62 ]
  store i32 %68, ptr @max_timeout, align 4
  br label %69

69:                                               ; preds = %67, %47
  call void @llvm.lifetime.start.p0(i64 4, ptr %8) #9
  store i32 0, ptr %8, align 4
  br label %70

70:                                               ; preds = %203, %69
  %71 = load ptr, ptr %5, align 8
  %72 = getelementptr inbounds nuw %struct.part_record, ptr %71, i32 0, i32 35
  %73 = load ptr, ptr %72, align 8
  %74 = call ptr @next_node_bitmap(ptr noundef %73, ptr noundef %8)
  store ptr %74, ptr %6, align 8
  %75 = icmp ne ptr %74, null
  br i1 %75, label %77, label %76

76:                                               ; preds = %70
  call void @llvm.lifetime.end.p0(i64 4, ptr %8) #9
  br label %206

77:                                               ; preds = %70
  %78 = load ptr, ptr %6, align 8
  %79 = getelementptr inbounds nuw %struct.node_record, ptr %78, i32 0, i32 67
  %80 = load i32, ptr %79, align 4
  %81 = icmp eq i32 %80, -2
  br i1 %81, label %82, label %88

82:                                               ; preds = %77
  %83 = load ptr, ptr %5, align 8
  %84 = getelementptr inbounds nuw %struct.part_record, ptr %83, i32 0, i32 48
  %85 = load i32, ptr %84, align 4
  %86 = load ptr, ptr %6, align 8
  %87 = getelementptr inbounds nuw %struct.node_record, ptr %86, i32 0, i32 67
  store i32 %85, ptr %87, align 4
  br label %114

88:                                               ; preds = %77
  %89 = load ptr, ptr %5, align 8
  %90 = getelementptr inbounds nuw %struct.part_record, ptr %89, i32 0, i32 48
  %91 = load i32, ptr %90, align 4
  %92 = icmp ne i32 %91, -2
  br i1 %92, label %93, label %113

93:                                               ; preds = %88
  %94 = load ptr, ptr %6, align 8
  %95 = getelementptr inbounds nuw %struct.node_record, ptr %94, i32 0, i32 67
  %96 = load i32, ptr %95, align 4
  %97 = load ptr, ptr %5, align 8
  %98 = getelementptr inbounds nuw %struct.part_record, ptr %97, i32 0, i32 48
  %99 = load i32, ptr %98, align 4
  %100 = icmp ugt i32 %96, %99
  br i1 %100, label %101, label %105

101:                                              ; preds = %93
  %102 = load ptr, ptr %6, align 8
  %103 = getelementptr inbounds nuw %struct.node_record, ptr %102, i32 0, i32 67
  %104 = load i32, ptr %103, align 4
  br label %109

105:                                              ; preds = %93
  %106 = load ptr, ptr %5, align 8
  %107 = getelementptr inbounds nuw %struct.part_record, ptr %106, i32 0, i32 48
  %108 = load i32, ptr %107, align 4
  br label %109

109:                                              ; preds = %105, %101
  %110 = phi i32 [ %104, %101 ], [ %108, %105 ]
  %111 = load ptr, ptr %6, align 8
  %112 = getelementptr inbounds nuw %struct.node_record, ptr %111, i32 0, i32 67
  store i32 %110, ptr %112, align 4
  br label %113

113:                                              ; preds = %109, %88
  br label %114

114:                                              ; preds = %113, %82
  %115 = load ptr, ptr %6, align 8
  %116 = getelementptr inbounds nuw %struct.node_record, ptr %115, i32 0, i32 60
  %117 = load i16, ptr %116, align 8
  %118 = zext i16 %117 to i32
  %119 = icmp eq i32 %118, 65534
  br i1 %119, label %120, label %126

120:                                              ; preds = %114
  %121 = load ptr, ptr %5, align 8
  %122 = getelementptr inbounds nuw %struct.part_record, ptr %121, i32 0, i32 46
  %123 = load i16, ptr %122, align 8
  %124 = load ptr, ptr %6, align 8
  %125 = getelementptr inbounds nuw %struct.node_record, ptr %124, i32 0, i32 60
  store i16 %123, ptr %125, align 8
  br label %158

126:                                              ; preds = %114
  %127 = load ptr, ptr %5, align 8
  %128 = getelementptr inbounds nuw %struct.part_record, ptr %127, i32 0, i32 46
  %129 = load i16, ptr %128, align 8
  %130 = zext i16 %129 to i32
  %131 = icmp ne i32 %130, 65534
  br i1 %131, label %132, label %157

132:                                              ; preds = %126
  %133 = load ptr, ptr %6, align 8
  %134 = getelementptr inbounds nuw %struct.node_record, ptr %133, i32 0, i32 60
  %135 = load i16, ptr %134, align 8
  %136 = zext i16 %135 to i32
  %137 = load ptr, ptr %5, align 8
  %138 = getelementptr inbounds nuw %struct.part_record, ptr %137, i32 0, i32 46
  %139 = load i16, ptr %138, align 8
  %140 = zext i16 %139 to i32
  %141 = icmp sgt i32 %136, %140
  br i1 %141, label %142, label %147

142:                                              ; preds = %132
  %143 = load ptr, ptr %6, align 8
  %144 = getelementptr inbounds nuw %struct.node_record, ptr %143, i32 0, i32 60
  %145 = load i16, ptr %144, align 8
  %146 = zext i16 %145 to i32
  br label %152

147:                                              ; preds = %132
  %148 = load ptr, ptr %5, align 8
  %149 = getelementptr inbounds nuw %struct.part_record, ptr %148, i32 0, i32 46
  %150 = load i16, ptr %149, align 8
  %151 = zext i16 %150 to i32
  br label %152

152:                                              ; preds = %147, %142
  %153 = phi i32 [ %146, %142 ], [ %151, %147 ]
  %154 = trunc i32 %153 to i16
  %155 = load ptr, ptr %6, align 8
  %156 = getelementptr inbounds nuw %struct.node_record, ptr %155, i32 0, i32 60
  store i16 %154, ptr %156, align 8
  br label %157

157:                                              ; preds = %152, %126
  br label %158

158:                                              ; preds = %157, %120
  %159 = load ptr, ptr %6, align 8
  %160 = getelementptr inbounds nuw %struct.node_record, ptr %159, i32 0, i32 68
  %161 = load i16, ptr %160, align 8
  %162 = zext i16 %161 to i32
  %163 = icmp eq i32 %162, 65534
  br i1 %163, label %164, label %170

164:                                              ; preds = %158
  %165 = load ptr, ptr %5, align 8
  %166 = getelementptr inbounds nuw %struct.part_record, ptr %165, i32 0, i32 49
  %167 = load i16, ptr %166, align 8
  %168 = load ptr, ptr %6, align 8
  %169 = getelementptr inbounds nuw %struct.node_record, ptr %168, i32 0, i32 68
  store i16 %167, ptr %169, align 8
  br label %202

170:                                              ; preds = %158
  %171 = load ptr, ptr %5, align 8
  %172 = getelementptr inbounds nuw %struct.part_record, ptr %171, i32 0, i32 49
  %173 = load i16, ptr %172, align 8
  %174 = zext i16 %173 to i32
  %175 = icmp ne i32 %174, 65534
  br i1 %175, label %176, label %201

176:                                              ; preds = %170
  %177 = load ptr, ptr %6, align 8
  %178 = getelementptr inbounds nuw %struct.node_record, ptr %177, i32 0, i32 68
  %179 = load i16, ptr %178, align 8
  %180 = zext i16 %179 to i32
  %181 = load ptr, ptr %5, align 8
  %182 = getelementptr inbounds nuw %struct.part_record, ptr %181, i32 0, i32 49
  %183 = load i16, ptr %182, align 8
  %184 = zext i16 %183 to i32
  %185 = icmp sgt i32 %180, %184
  br i1 %185, label %186, label %191

186:                                              ; preds = %176
  %187 = load ptr, ptr %6, align 8
  %188 = getelementptr inbounds nuw %struct.node_record, ptr %187, i32 0, i32 68
  %189 = load i16, ptr %188, align 8
  %190 = zext i16 %189 to i32
  br label %196

191:                                              ; preds = %176
  %192 = load ptr, ptr %5, align 8
  %193 = getelementptr inbounds nuw %struct.part_record, ptr %192, i32 0, i32 49
  %194 = load i16, ptr %193, align 8
  %195 = zext i16 %194 to i32
  br label %196

196:                                              ; preds = %191, %186
  %197 = phi i32 [ %190, %186 ], [ %195, %191 ]
  %198 = trunc i32 %197 to i16
  %199 = load ptr, ptr %6, align 8
  %200 = getelementptr inbounds nuw %struct.node_record, ptr %199, i32 0, i32 68
  store i16 %198, ptr %200, align 8
  br label %201

201:                                              ; preds = %196, %170
  br label %202

202:                                              ; preds = %201, %164
  br label %203

203:                                              ; preds = %202
  %204 = load i32, ptr %8, align 4
  %205 = add nsw i32 %204, 1
  store i32 %205, ptr %8, align 4
  br label %70, !llvm.loop !19

206:                                              ; preds = %76
  call void @llvm.lifetime.end.p0(i64 8, ptr %7) #9
  call void @llvm.lifetime.end.p0(i64 8, ptr %6) #9
  call void @llvm.lifetime.end.p0(i64 8, ptr %5) #9
  ret i32 0
}