; Function Attrs: nounwind uwtable
define internal noundef i32 @_set_partition_options(ptr noundef readonly captures(none) %0, ptr noundef writeonly captures(address_is_null) %1) #0 {
  %3 = alloca i32, align 4
  %.not = icmp eq ptr %1, null
  br i1 %.not, label %8, label %4

4:                                                ; preds = %2
  %5 = getelementptr inbounds nuw i8, ptr %0, i64 308
  %6 = load i32, ptr %5, align 4
  %switch = icmp ugt i32 %6, -3
  br i1 %switch, label %8, label %7

7:                                                ; preds = %4
  store i8 1, ptr %1, align 1
  br label %8

8:                                                ; preds = %4, %7, %2
  %9 = getelementptr inbounds nuw i8, ptr %0, i64 304
  %10 = load i16, ptr %9, align 8
  %11 = zext i16 %10 to i32
  %.not54 = icmp eq i16 %10, -2
  br i1 %.not54, label %14, label %12

12:                                               ; preds = %8
  %13 = load i32, ptr @max_timeout, align 4
  %. = tail call i32 @llvm.smax.i32(i32 %13, i32 %11)
  store i32 %., ptr @max_timeout, align 4
  br label %14

14:                                               ; preds = %12, %8
  %15 = getelementptr inbounds nuw i8, ptr %0, i64 312
  %16 = load i16, ptr %15, align 8
  %.not55 = icmp eq i16 %16, -2
  br i1 %.not55, label %19, label %17

17:                                               ; preds = %14
  %18 = load i32, ptr @max_timeout, align 4
  %.61 = tail call i32 @llvm.smax.i32(i32 %18, i32 %11)
  store i32 %.61, ptr @max_timeout, align 4
  br label %19

19:                                               ; preds = %17, %14
  call void @llvm.lifetime.start.p0(i64 4, ptr nonnull %3) #12
  %20 = getelementptr inbounds nuw i8, ptr %0, i64 240
  store i32 0, ptr %3, align 4
  %21 = load ptr, ptr %20, align 8
  %22 = call ptr @next_node_bitmap(ptr noundef %21, ptr noundef nonnull %3) #12
  %.not5665 = icmp eq ptr %22, null
  br i1 %.not5665, label %._crit_edge, label %.lr.ph

.lr.ph:                                           ; preds = %19
  %23 = getelementptr inbounds nuw i8, ptr %0, i64 308
  br label %24

._crit_edge:                                      ; preds = %46, %19
  call void @llvm.lifetime.end.p0(i64 4, ptr nonnull %3) #12
  ret i32 0

24:                                               ; preds = %.lr.ph, %46
  %25 = phi ptr [ %22, %.lr.ph ], [ %50, %46 ]
  %26 = getelementptr inbounds nuw i8, ptr %25, i64 468
  %27 = load i32, ptr %26, align 4
  %28 = icmp eq i32 %27, -2
  %29 = load i32, ptr %23, align 4
  br i1 %28, label %.sink.split, label %30

30:                                               ; preds = %24
  %.not57 = icmp eq i32 %29, -2
  br i1 %.not57, label %32, label %31

31:                                               ; preds = %30
  %.62 = call i32 @llvm.umax.i32(i32 %27, i32 %29)
  br label %.sink.split

.sink.split:                                      ; preds = %24, %31
  %.62.sink = phi i32 [ %.62, %31 ], [ %29, %24 ]
  store i32 %.62.sink, ptr %26, align 4
  br label %32

32:                                               ; preds = %.sink.split, %30
  %33 = getelementptr inbounds nuw i8, ptr %25, i64 416
  %34 = load i16, ptr %33, align 8
  %35 = icmp eq i16 %34, -2
  %36 = load i16, ptr %9, align 8
  br i1 %35, label %.sink.split66, label %37

37:                                               ; preds = %32
  %.not58 = icmp eq i16 %36, -2
  br i1 %.not58, label %39, label %38

38:                                               ; preds = %37
  %.63 = call i16 @llvm.umax.i16(i16 %34, i16 %36)
  br label %.sink.split66

.sink.split66:                                    ; preds = %32, %38
  %.63.sink = phi i16 [ %.63, %38 ], [ %36, %32 ]
  store i16 %.63.sink, ptr %33, align 8
  br label %39

39:                                               ; preds = %.sink.split66, %37
  %40 = getelementptr inbounds nuw i8, ptr %25, i64 472
  %41 = load i16, ptr %40, align 8
  %42 = icmp eq i16 %41, -2
  %43 = load i16, ptr %15, align 8
  br i1 %42, label %.sink.split67, label %44

44:                                               ; preds = %39
  %.not59 = icmp eq i16 %43, -2
  br i1 %.not59, label %46, label %45

45:                                               ; preds = %44
  %.64 = call i16 @llvm.umax.i16(i16 %41, i16 %43)
  br label %.sink.split67

.sink.split67:                                    ; preds = %39, %45
  %.sink = phi i16 [ %.64, %45 ], [ %43, %39 ]
  store i16 %.sink, ptr %40, align 8
  br label %46

46:                                               ; preds = %.sink.split67, %44
  %47 = load i32, ptr %3, align 4
  %48 = add nsw i32 %47, 1
  store i32 %48, ptr %3, align 4
  %49 = load ptr, ptr %20, align 8
  %50 = call ptr @next_node_bitmap(ptr noundef %49, ptr noundef nonnull %3) #12
  %.not56 = icmp eq ptr %50, null
  br i1 %.not56, label %._crit_edge, label %24, !llvm.loop !22
}